target datalayout = "e-m:e-p270:32:32-p271:32:32-p272:64:64-i64:64-i128:128-f80:128-n8:16:32:64-S128"
target triple = "x86_64-pc-linux-gnu"

%struct.Cec3_Par_t_ = type { i32, i32, i32, i32, i32, i32, i32, i32 }
%struct.Cec3_Man_t_ = type { ptr, ptr, ptr, ptr, ptr, ptr, ptr, ptr, ptr, ptr, ptr, i32, i32, i32, i32, i64, i64, i64, i64, i64, i64, i64 }

@.str.12 = private unnamed_addr constant [8 x i8] c"S =%5d \00", align 1
@.str.13 = private unnamed_addr constant [8 x i8] c"U =%5d \00", align 1
@.str.14 = private unnamed_addr constant [8 x i8] c"F =%5d \00", align 1

; Function Attrs: nounwind uwtable
define void @Cec3_ManPrintStats(ptr noundef %0, ptr noundef %1, ptr noundef %2) #0 {
  %4 = alloca ptr, align 8
  %5 = alloca ptr, align 8
  %6 = alloca ptr, align 8
  store ptr %0, ptr %4, align 8, !tbaa !18
  store ptr %1, ptr %5, align 8, !tbaa !3
  store ptr %2, ptr %6, align 8, !tbaa !38
  %7 = load ptr, ptr %5, align 8, !tbaa !3
  %8 = getelementptr inbounds nuw %struct.Cec3_Par_t_, ptr %7, i32 0, i32 7
  %9 = load i32, ptr %8, align 4, !tbaa !17
  %10 = icmp ne i32 %9, 0
  br i1 %10, label %12, label %11

11:                                               ; preds = %3
  br label %47

12:                                               ; preds = %3
  %13 = load ptr, ptr %6, align 8, !tbaa !38
  %14 = icmp ne ptr %13, null
  br i1 %14, label %15, label %19

15:                                               ; preds = %12
  %16 = load ptr, ptr %6, align 8, !tbaa !38
  %17 = getelementptr inbounds nuw %struct.Cec3_Man_t_, ptr %16, i32 0, i32 12
  %18 = load i32, ptr %17, align 4, !tbaa !145
  br label %20

19:                                               ; preds = %12
  br label %20

20:                                               ; preds = %19, %15
  %21 = phi i32 [ %18, %15 ], [ 0, %19 ]
  %22 = call i32 (ptr, ...) @printf(ptr noundef @.str.12, i32 noundef %21)
  %23 = load ptr, ptr %6, align 8, !tbaa !38
  %24 = icmp ne ptr %23, null
  br i1 %24, label %25, label %29

25:                                               ; preds = %20
  %26 = load ptr, ptr %6, align 8, !tbaa !38
  %27 = getelementptr inbounds nuw %struct.Cec3_Man_t_, ptr %26, i32 0, i32 13
  %28 = load i32, ptr %27, align 8, !tbaa !148
  br label %30

29:                                               ; preds = %20
  br label %30

30:                                               ; preds = %29, %25
  %31 = phi i32 [ %28, %25 ], [ 0, %29 ]
  %32 = call i32 (ptr, ...) @printf(ptr noundef @.str.13, i32 noundef %31)
  %33 = load ptr, ptr %6, align 8, !tbaa !38
  %34 = icmp ne ptr %33, null
  br i1 %34, label %35, label %39

35:                                               ; preds = %30
  %36 = load ptr, ptr %6, align 8, !tbaa !38
  %37 = getelementptr inbounds nuw %struct.Cec3_Man_t_, ptr %36, i32 0, i32 14
  %38 = load i32, ptr %37, align 4, !tbaa !149
  br label %40

39:                                               ; preds = %30
  br label %40

40:                                               ; preds = %39, %35
  %41 = phi i32 [ %38, %35 ], [ 0, %39 ]
  %42 = call i32 (ptr, ...) @printf(ptr noundef @.str.14, i32 noundef %41)
  %43 = load ptr, ptr %4, align 8, !tbaa !18
  %44 = load ptr, ptr %5, align 8, !tbaa !3
  %45 = getelementptr inbounds nuw %struct.Cec3_Par_t_, ptr %44, i32 0, i32 6
  %46 = load i32, ptr %45, align 4, !tbaa !16
  call void @Gia_ManEquivPrintClasses(ptr noundef %43, i32 noundef %46, float noundef 0.000000e+00)
  br label %47

47:                                               ; preds = %40, %11
  ret void
}