; Function Attrs: nounwind uwtable
define void @Cec3_ManPrintStats(ptr noundef %0, ptr noundef readonly captures(none) %1, ptr noundef readonly %2) local_unnamed_addr #2 {
  %4 = getelementptr inbounds nuw i8, ptr %1, i64 28
  %5 = load i32, ptr %4, align 4, !tbaa !119
  %.not = icmp eq i32 %5, 0
  br i1 %.not, label %23, label %6

6:                                                ; preds = %3
  %.not9 = icmp eq ptr %2, null
  br i1 %.not9, label %.thread, label %9

.thread:                                          ; preds = %6
  %7 = tail call i32 (ptr, ...) @printf(ptr noundef nonnull dereferenceable(1) @.str.12, i32 noundef 0)
  %8 = tail call i32 (ptr, ...) @printf(ptr noundef nonnull dereferenceable(1) @.str.13, i32 noundef 0)
  br label %18

9:                                                ; preds = %6
  %10 = getelementptr inbounds nuw i8, ptr %2, i64 92
  %11 = load i32, ptr %10, align 4, !tbaa !135
  %12 = tail call i32 (ptr, ...) @printf(ptr noundef nonnull dereferenceable(1) @.str.12, i32 noundef %11)
  %13 = getelementptr inbounds nuw i8, ptr %2, i64 96
  %14 = load i32, ptr %13, align 8, !tbaa !138
  %15 = tail call i32 (ptr, ...) @printf(ptr noundef nonnull dereferenceable(1) @.str.13, i32 noundef %14)
  %16 = getelementptr inbounds nuw i8, ptr %2, i64 100
  %17 = load i32, ptr %16, align 4, !tbaa !139
  br label %18

18:                                               ; preds = %.thread, %9
  %19 = phi i32 [ %17, %9 ], [ 0, %.thread ]
  %20 = tail call i32 (ptr, ...) @printf(ptr noundef nonnull dereferenceable(1) @.str.14, i32 noundef %19)
  %21 = getelementptr inbounds nuw i8, ptr %1, i64 24
  %22 = load i32, ptr %21, align 4, !tbaa !140
  tail call void @Gia_ManEquivPrintClasses(ptr noundef %0, i32 noundef %22, float noundef 0.000000e+00) #22
  br label %23

23:                                               ; preds = %3, %18
  ret void
}